; Function Attrs: nounwind uwtable
define noundef nonnull ptr @l_Array_isEqvAux___at_Lean_Lsp_beqCompletionItem____x40_Lean_Data_Lsp_LanguageFeatures___hyg_2497____spec__7___boxed(ptr noundef %0, ptr noundef %1, ptr noundef readnone captures(none) %2, ptr noundef %3, ptr noundef %4, ptr noundef %5, ptr noundef readnone captures(none) %6) local_unnamed_addr #0 {
  br label %lean_dec.exit11.i

lean_dec.exit11.i:                                ; preds = %lean_dec.exit11.i.backedge, %7
  %.010.i = phi ptr [ %5, %7 ], [ %.010.i.be, %lean_dec.exit11.i.backedge ]
  %8 = ptrtoint ptr %.010.i to i64
  %9 = and i64 %8, 1
  %.not.i21 = icmp eq i64 %9, 0
  br i1 %.not.i21, label %lean_nat_eq.exit.thread.i, label %lean_nat_eq.exit.i, !prof !18

lean_nat_eq.exit.i:                               ; preds = %lean_dec.exit11.i
  %.not23.i = icmp eq ptr %.010.i, inttoptr (i64 1 to ptr)
  br i1 %.not23.i, label %l_Array_isEqvAux___at_Lean_Lsp_beqCompletionItem____x40_Lean_Data_Lsp_LanguageFeatures___hyg_2497____spec__7.exit, label %11

lean_nat_eq.exit.thread.i:                        ; preds = %lean_dec.exit11.i
  %10 = tail call zeroext i1 @lean_nat_big_eq(ptr noundef %.010.i, ptr noundef nonnull inttoptr (i64 1 to ptr)) #9
  br i1 %10, label %.thread18.i, label %.thread.i

11:                                               ; preds = %lean_nat_eq.exit.i
  %12 = icmp ult ptr %.010.i, inttoptr (i64 2 to ptr)
  br i1 %12, label %lean_dec.exit11.i.backedge, label %13

13:                                               ; preds = %11
  %14 = add i64 %8, -2
  %15 = inttoptr i64 %14 to ptr
  br label %lean_dec.exit11.i.backedge

.thread.i:                                        ; preds = %lean_nat_eq.exit.thread.i
  %16 = tail call ptr @lean_nat_big_sub(ptr noundef %.010.i, ptr noundef nonnull inttoptr (i64 3 to ptr)) #9
  %17 = load i32, ptr %.010.i, align 4, !tbaa !8
  %18 = icmp sgt i32 %17, 1
  br i1 %18, label %19, label %21, !prof !11

19:                                               ; preds = %.thread.i
  %20 = add nsw i32 %17, -1
  store i32 %20, ptr %.010.i, align 4, !tbaa !8
  br label %lean_dec.exit11.i.backedge

21:                                               ; preds = %.thread.i
  %.not.i.i = icmp eq i32 %17, 0
  br i1 %.not.i.i, label %lean_dec.exit11.i.backedge, label %22

22:                                               ; preds = %21
  tail call void @lean_dec_ref_cold(ptr noundef nonnull %.010.i) #9
  br label %lean_dec.exit11.i.backedge

lean_dec.exit11.i.backedge:                       ; preds = %22, %21, %19, %13, %11
  %.010.i.be = phi ptr [ %16, %19 ], [ %16, %21 ], [ %16, %22 ], [ inttoptr (i64 1 to ptr), %11 ], [ %15, %13 ]
  br label %lean_dec.exit11.i

.thread18.i:                                      ; preds = %lean_nat_eq.exit.thread.i
  %23 = load i32, ptr %.010.i, align 4, !tbaa !8
  %24 = icmp sgt i32 %23, 1
  br i1 %24, label %25, label %27, !prof !11

25:                                               ; preds = %.thread18.i
  %26 = add nsw i32 %23, -1
  store i32 %26, ptr %.010.i, align 4, !tbaa !8
  br label %l_Array_isEqvAux___at_Lean_Lsp_beqCompletionItem____x40_Lean_Data_Lsp_LanguageFeatures___hyg_2497____spec__7.exit

27:                                               ; preds = %.thread18.i
  %.not.i12.i = icmp eq i32 %23, 0
  br i1 %.not.i12.i, label %l_Array_isEqvAux___at_Lean_Lsp_beqCompletionItem____x40_Lean_Data_Lsp_LanguageFeatures___hyg_2497____spec__7.exit, label %28

28:                                               ; preds = %27
  tail call void @lean_dec_ref_cold(ptr noundef nonnull %.010.i) #9
  br label %l_Array_isEqvAux___at_Lean_Lsp_beqCompletionItem____x40_Lean_Data_Lsp_LanguageFeatures___hyg_2497____spec__7.exit

l_Array_isEqvAux___at_Lean_Lsp_beqCompletionItem____x40_Lean_Data_Lsp_LanguageFeatures___hyg_2497____spec__7.exit: ; preds = %lean_nat_eq.exit.i, %25, %27, %28
  %29 = ptrtoint ptr %4 to i64
  %30 = and i64 %29, 1
  %.not = icmp eq i64 %30, 0
  br i1 %.not, label %31, label %lean_dec.exit14

31:                                               ; preds = %l_Array_isEqvAux___at_Lean_Lsp_beqCompletionItem____x40_Lean_Data_Lsp_LanguageFeatures___hyg_2497____spec__7.exit
  %32 = load i32, ptr %4, align 4, !tbaa !8
  %33 = icmp sgt i32 %32, 1
  br i1 %33, label %34, label %36, !prof !11

34:                                               ; preds = %31
  %35 = add nsw i32 %32, -1
  store i32 %35, ptr %4, align 4, !tbaa !8
  br label %lean_dec.exit14

36:                                               ; preds = %31
  %.not.i = icmp eq i32 %32, 0
  br i1 %.not.i, label %lean_dec.exit14, label %37

37:                                               ; preds = %36
  tail call void @lean_dec_ref_cold(ptr noundef nonnull %4) #9
  br label %lean_dec.exit14

lean_dec.exit14:                                  ; preds = %37, %36, %34, %l_Array_isEqvAux___at_Lean_Lsp_beqCompletionItem____x40_Lean_Data_Lsp_LanguageFeatures___hyg_2497____spec__7.exit
  %38 = ptrtoint ptr %3 to i64
  %39 = and i64 %38, 1
  %.not22 = icmp eq i64 %39, 0
  br i1 %.not22, label %40, label %lean_dec.exit13

40:                                               ; preds = %lean_dec.exit14
  %41 = load i32, ptr %3, align 4, !tbaa !8
  %42 = icmp sgt i32 %41, 1
  br i1 %42, label %43, label %45, !prof !11

43:                                               ; preds = %40
  %44 = add nsw i32 %41, -1
  store i32 %44, ptr %3, align 4, !tbaa !8
  br label %lean_dec.exit13

45:                                               ; preds = %40
  %.not.i15 = icmp eq i32 %41, 0
  br i1 %.not.i15, label %lean_dec.exit13, label %46

46:                                               ; preds = %45
  tail call void @lean_dec_ref_cold(ptr noundef nonnull %3) #9
  br label %lean_dec.exit13

lean_dec.exit13:                                  ; preds = %46, %45, %43, %lean_dec.exit14
  %47 = ptrtoint ptr %1 to i64
  %48 = and i64 %47, 1
  %.not23 = icmp eq i64 %48, 0
  br i1 %.not23, label %49, label %lean_dec.exit12

49:                                               ; preds = %lean_dec.exit13
  %50 = load i32, ptr %1, align 4, !tbaa !8
  %51 = icmp sgt i32 %50, 1
  br i1 %51, label %52, label %54, !prof !11

52:                                               ; preds = %49
  %53 = add nsw i32 %50, -1
  store i32 %53, ptr %1, align 4, !tbaa !8
  br label %lean_dec.exit12

54:                                               ; preds = %49
  %.not.i17 = icmp eq i32 %50, 0
  br i1 %.not.i17, label %lean_dec.exit12, label %55

55:                                               ; preds = %54
  tail call void @lean_dec_ref_cold(ptr noundef nonnull %1) #9
  br label %lean_dec.exit12

lean_dec.exit12:                                  ; preds = %55, %54, %52, %lean_dec.exit13
  %56 = ptrtoint ptr %0 to i64
  %57 = and i64 %56, 1
  %.not24 = icmp eq i64 %57, 0
  br i1 %.not24, label %58, label %lean_dec.exit

58:                                               ; preds = %lean_dec.exit12
  %59 = load i32, ptr %0, align 4, !tbaa !8
  %60 = icmp sgt i32 %59, 1
  br i1 %60, label %61, label %63, !prof !11

61:                                               ; preds = %58
  %62 = add nsw i32 %59, -1
  store i32 %62, ptr %0, align 4, !tbaa !8
  br label %lean_dec.exit

63:                                               ; preds = %58
  %.not.i19 = icmp eq i32 %59, 0
  br i1 %.not.i19, label %lean_dec.exit, label %64

64:                                               ; preds = %63
  tail call void @lean_dec_ref_cold(ptr noundef nonnull %0) #9
  br label %lean_dec.exit

lean_dec.exit:                                    ; preds = %64, %63, %61, %lean_dec.exit12
  ret ptr inttoptr (i64 3 to ptr)
}